; Function Attrs: nounwind uwtable
define zeroext range(i8 0, 2) i8 @l_Array_anyMUnsafe_any___at_Lean_Server_FileWorker_handlePostRequestSpecialCases___spec__4(ptr noundef %0, ptr noundef readonly captures(none) %1, i64 noundef %2, i64 noundef %3) local_unnamed_addr #0 {
  %.not29 = icmp eq i64 %2, %3
  br i1 %.not29, label %lean_dec.exit._crit_edge, label %.lr.ph

.lr.ph:                                           ; preds = %4
  %5 = getelementptr inbounds nuw i8, ptr %1, i64 24
  %6 = getelementptr i8, ptr %0, i64 8
  br label %9

7:                                                ; preds = %lean_dec.exit
  %8 = add i64 %.01530, 1
  %.not = icmp eq i64 %8, %3
  br i1 %.not, label %lean_dec.exit._crit_edge, label %9

9:                                                ; preds = %.lr.ph, %7
  %.01530 = phi i64 [ %2, %.lr.ph ], [ %8, %7 ]
  %10 = getelementptr inbounds nuw [0 x ptr], ptr %5, i64 0, i64 %.01530
  %11 = load ptr, ptr %10, align 8, !tbaa !4
  %12 = ptrtoint ptr %11 to i64
  %13 = and i64 %12, 1
  %.not.i20 = icmp eq i64 %13, 0
  br i1 %.not.i20, label %14, label %lean_array_uget.exit

14:                                               ; preds = %9
  %.val.i.i = load i32, ptr %11, align 4, !tbaa !10
  %15 = icmp sgt i32 %.val.i.i, 0
  br i1 %15, label %16, label %18, !prof !13

16:                                               ; preds = %14
  %17 = add nuw i32 %.val.i.i, 1
  store i32 %17, ptr %11, align 4, !tbaa !10
  br label %lean_array_uget.exit

18:                                               ; preds = %14
  %.not.i.i = icmp eq i32 %.val.i.i, 0
  br i1 %.not.i.i, label %lean_array_uget.exit, label %19

19:                                               ; preds = %18
  tail call void @lean_inc_ref_cold(ptr noundef nonnull %11) #7
  br label %lean_array_uget.exit

lean_array_uget.exit:                             ; preds = %9, %16, %18, %19
  %20 = icmp eq ptr %0, %11
  br i1 %20, label %lean_string_dec_eq.exit, label %21

21:                                               ; preds = %lean_array_uget.exit
  %.val.i.i21 = load i64, ptr %6, align 8, !tbaa !8
  %22 = getelementptr i8, ptr %11, i64 8
  %.val7.i.i = load i64, ptr %22, align 8, !tbaa !8
  %23 = icmp eq i64 %.val.i.i21, %.val7.i.i
  br i1 %23, label %24, label %lean_string_dec_eq.exit

24:                                               ; preds = %21
  %25 = tail call zeroext i1 @lean_string_eq_cold(ptr noundef nonnull %0, ptr noundef nonnull %11) #7
  %26 = xor i1 %25, true
  br label %lean_string_dec_eq.exit

lean_string_dec_eq.exit:                          ; preds = %lean_array_uget.exit, %21, %24
  %27 = phi i1 [ false, %lean_array_uget.exit ], [ true, %21 ], [ %26, %24 ]
  br i1 %.not.i20, label %28, label %lean_dec.exit

28:                                               ; preds = %lean_string_dec_eq.exit
  %29 = load i32, ptr %11, align 4, !tbaa !10
  %30 = icmp sgt i32 %29, 1
  br i1 %30, label %31, label %33, !prof !13

31:                                               ; preds = %28
  %32 = add nsw i32 %29, -1
  store i32 %32, ptr %11, align 4, !tbaa !10
  br label %lean_dec.exit

33:                                               ; preds = %28
  %.not.i = icmp eq i32 %29, 0
  br i1 %.not.i, label %lean_dec.exit, label %34

34:                                               ; preds = %33
  tail call void @lean_dec_ref_cold(ptr noundef nonnull %11) #7
  br label %lean_dec.exit

lean_dec.exit:                                    ; preds = %34, %33, %31, %lean_string_dec_eq.exit
  br i1 %27, label %7, label %lean_dec.exit._crit_edge

lean_dec.exit._crit_edge:                         ; preds = %7, %lean_dec.exit, %4
  %.2.ph = phi i8 [ 0, %4 ], [ 1, %lean_dec.exit ], [ 0, %7 ]
  ret i8 %.2.ph
}